; Function Attrs: nounwind uwtable
define internal void @fn_exit_fl(ptr noundef %0, i32 noundef %1, i64 noundef %2, i32 noundef %3) #0 {
  %5 = alloca %struct.strbuf, align 8
  call void @llvm.lifetime.start.p0(i64 24, ptr nonnull %5) #7
  call void @llvm.memcpy.p0.p0.i64(ptr noundef nonnull align 8 dereferenceable(24) %5, ptr noundef nonnull align 8 dereferenceable(24) @__const.fn_counter.buf_payload, i64 24, i1 false)
  %6 = uitofp i64 %2 to double
  %7 = fdiv double %6, 1.000000e+06
  call void (ptr, ptr, ...) @strbuf_addf(ptr noundef nonnull %5, ptr noundef nonnull @.str.6, double noundef %7, i32 noundef %3) #7
  call fastcc void @normal_io_write_fl(ptr noundef %0, i32 noundef %1, ptr noundef %5)
  call void @strbuf_release(ptr noundef nonnull %5) #7
  call void @llvm.lifetime.end.p0(i64 24, ptr nonnull %5) #7
  ret void
}